; Function Attrs: nounwind sspstrong uwtable
define internal i64 @ossl_cipher_set_key(i64 noundef %0, i64 noundef %1) #0 {
  %3 = alloca i64, align 8
  store i64 %1, ptr %3, align 8, !tbaa !6
  %4 = call i64 @rb_string_value(ptr noundef nonnull %3) #11
  %5 = call ptr @rb_check_typeddata(i64 noundef %0, ptr noundef nonnull @ossl_cipher_type) #11
  %.not = icmp eq ptr %5, null
  br i1 %.not, label %6, label %8

6:                                                ; preds = %2
  %7 = load i64, ptr @rb_eRuntimeError, align 8, !tbaa !6
  call void (i64, ptr, ...) @ossl_raise(i64 noundef %7, ptr noundef nonnull @.str) #12
  unreachable

8:                                                ; preds = %2
  %9 = call i32 @EVP_CIPHER_CTX_get_key_length(ptr noundef nonnull %5) #11
  %10 = load i64, ptr %3, align 8, !tbaa !6
  %11 = inttoptr i64 %10 to ptr
  %12 = getelementptr inbounds nuw i8, ptr %11, i64 16
  %13 = load i64, ptr %12, align 8, !tbaa !26
  %14 = sext i32 %9 to i64
  %.not6 = icmp eq i64 %13, %14
  br i1 %.not6, label %17, label %15

15:                                               ; preds = %8
  %16 = load i64, ptr @rb_eArgError, align 8, !tbaa !6
  call void (i64, ptr, ...) @ossl_raise(i64 noundef %16, ptr noundef nonnull @.str.42, i32 noundef %9) #12
  unreachable

17:                                               ; preds = %8
  %18 = load i64, ptr %11, align 8, !tbaa !10, !noalias !47
  %19 = and i64 %18, 8192
  %.not.i.i = icmp eq i64 %19, 0
  %20 = getelementptr inbounds nuw i8, ptr %11, i64 24
  br i1 %.not.i.i, label %RSTRING_PTR.exit, label %21

21:                                               ; preds = %17
  %.sroa.2.0.copyload.i = load ptr, ptr %20, align 8
  br label %RSTRING_PTR.exit

RSTRING_PTR.exit:                                 ; preds = %17, %21
  %.sroa.2.0.i = phi ptr [ %.sroa.2.0.copyload.i, %21 ], [ %20, %17 ]
  %22 = call i32 @EVP_CipherInit_ex(ptr noundef nonnull %5, ptr noundef null, ptr noundef null, ptr noundef %.sroa.2.0.i, ptr noundef null, i32 noundef -1) #11
  %.not7 = icmp eq i32 %22, 1
  br i1 %.not7, label %25, label %23

23:                                               ; preds = %RSTRING_PTR.exit
  %24 = load i64, ptr @eCipherError, align 8, !tbaa !6
  call void (i64, ptr, ...) @ossl_raise(i64 noundef %24, ptr noundef null) #12
  unreachable

25:                                               ; preds = %RSTRING_PTR.exit
  %26 = load i64, ptr @id_key_set, align 8, !tbaa !6
  %27 = call i64 @rb_ivar_set(i64 noundef %0, i64 noundef %26, i64 noundef 20) #11
  %28 = load i64, ptr %3, align 8, !tbaa !6
  ret i64 %28
}